S'{\n    "created_at": "2013-10-17 14:50:23",\n    "name": "Primerize",\n    "num_branches": 1,\n    "num_downloads": 0,\n    "num_forks": 0,\n    "num_issues": 0,\n    "num_pulls": 0,\n    "num_watchers": 1,\n    "pushed_at": "2016-01-18 13:50:34"\n}'
p0
.