S'{\n    "created_at": "2014-11-07 13:19:02",\n    "name": "Server_RMDB",\n    "num_branches": 1,\n    "num_downloads": 0,\n    "num_forks": 0,\n    "num_issues": 0,\n    "num_pulls": 0,\n    "num_watchers": 0,\n    "pushed_at": "2016-01-15 10:33:55"\n}'
p0
.