S'{\n    "created_at": "2014-11-18 11:16:36",\n    "name": "Server_Primerize",\n    "num_branches": 2,\n    "num_downloads": 0,\n    "num_forks": 0,\n    "num_issues": 0,\n    "num_pulls": 0,\n    "num_watchers": 0,\n    "pushed_at": "2016-01-18 13:45:42"\n}'
p0
.